; Function Attrs: mustprogress nounwind uwtable
define dso_local void @_ZN5clang16OMPClausePrinter19VisitOMPOrderClauseEPNS_14OMPOrderClauseE(ptr noundef nonnull readonly align 8 captures(none) dereferenceable(16) %0, ptr noundef readonly captures(none) %1) local_unnamed_addr #1 align 2 {
  %3 = load ptr, ptr %0, align 8
  %4 = getelementptr inbounds nuw i8, ptr %3, i64 24
  %5 = load ptr, ptr %4, align 8
  %6 = getelementptr inbounds nuw i8, ptr %3, i64 32
  %7 = load ptr, ptr %6, align 8
  %8 = ptrtoint ptr %5 to i64
  %9 = ptrtoint ptr %7 to i64
  %10 = sub i64 %8, %9
  %11 = icmp ult i64 %10, 6
  br i1 %11, label %12, label %14

12:                                               ; preds = %2
  %13 = tail call noundef nonnull align 8 dereferenceable(48) ptr @_ZN4llvm11raw_ostream5writeEPKcm(ptr noundef nonnull align 8 dereferenceable(48) %3, ptr noundef nonnull @.str.98, i64 noundef 6) #22
  br label %_ZN4llvm11raw_ostreamlsEPKc.exit

14:                                               ; preds = %2
  tail call void @llvm.memcpy.p0.p0.i64(ptr noundef nonnull align 1 dereferenceable(6) %7, ptr noundef nonnull align 1 dereferenceable(6) @.str.98, i64 6, i1 false)
  %15 = load ptr, ptr %6, align 8
  %16 = getelementptr inbounds nuw i8, ptr %15, i64 6
  store ptr %16, ptr %6, align 8
  br label %_ZN4llvm11raw_ostreamlsEPKc.exit

_ZN4llvm11raw_ostreamlsEPKc.exit:                 ; preds = %12, %14
  %17 = getelementptr inbounds nuw i8, ptr %1, i64 24
  %18 = load i32, ptr %17, align 4
  %.not = icmp eq i32 %18, 1
  br i1 %.not, label %_ZN4llvm11raw_ostreamlsEPKc.exit10, label %19

19:                                               ; preds = %_ZN4llvm11raw_ostreamlsEPKc.exit
  %20 = load ptr, ptr %0, align 8
  %21 = tail call noundef ptr @_ZN5clang29getOpenMPSimpleClauseTypeNameEN4llvm3omp6ClauseEj(i32 noundef 74, i32 noundef %18) #22
  %.not.i.i = icmp eq ptr %21, null
  br i1 %.not.i.i, label %_ZN4llvm11raw_ostreamlsEPKc.exit6, label %_ZN4llvm9StringRefC2EPKc.exit.i

_ZN4llvm9StringRefC2EPKc.exit.i:                  ; preds = %19
  %22 = tail call noundef i64 @strlen(ptr noundef nonnull dereferenceable(1) %21) #22
  %23 = getelementptr inbounds nuw i8, ptr %20, i64 24
  %24 = load ptr, ptr %23, align 8
  %25 = getelementptr inbounds nuw i8, ptr %20, i64 32
  %26 = load ptr, ptr %25, align 8
  %27 = ptrtoint ptr %24 to i64
  %28 = ptrtoint ptr %26 to i64
  %29 = sub i64 %27, %28
  %30 = icmp ugt i64 %22, %29
  br i1 %30, label %31, label %33

31:                                               ; preds = %_ZN4llvm9StringRefC2EPKc.exit.i
  %32 = tail call noundef nonnull align 8 dereferenceable(48) ptr @_ZN4llvm11raw_ostream5writeEPKcm(ptr noundef nonnull align 8 dereferenceable(48) %20, ptr noundef nonnull %21, i64 noundef %22) #22
  br label %_ZN4llvm11raw_ostreamlsEPKc.exit6

33:                                               ; preds = %_ZN4llvm9StringRefC2EPKc.exit.i
  %.not.i2.i4 = icmp eq i64 %22, 0
  br i1 %.not.i2.i4, label %_ZN4llvm11raw_ostreamlsEPKc.exit6, label %34

34:                                               ; preds = %33
  tail call void @llvm.memcpy.p0.p0.i64(ptr align 1 %26, ptr nonnull align 1 %21, i64 %22, i1 false)
  %35 = load ptr, ptr %25, align 8
  %36 = getelementptr inbounds i8, ptr %35, i64 %22
  store ptr %36, ptr %25, align 8
  br label %_ZN4llvm11raw_ostreamlsEPKc.exit6

_ZN4llvm11raw_ostreamlsEPKc.exit6:                ; preds = %19, %31, %33, %34
  %37 = load ptr, ptr %0, align 8
  %38 = getelementptr inbounds nuw i8, ptr %37, i64 24
  %39 = load ptr, ptr %38, align 8
  %40 = getelementptr inbounds nuw i8, ptr %37, i64 32
  %41 = load ptr, ptr %40, align 8
  %42 = ptrtoint ptr %39 to i64
  %43 = ptrtoint ptr %41 to i64
  %44 = sub i64 %42, %43
  %45 = icmp ult i64 %44, 2
  br i1 %45, label %46, label %48

46:                                               ; preds = %_ZN4llvm11raw_ostreamlsEPKc.exit6
  %47 = tail call noundef nonnull align 8 dereferenceable(48) ptr @_ZN4llvm11raw_ostream5writeEPKcm(ptr noundef nonnull align 8 dereferenceable(48) %37, ptr noundef nonnull @.str.1, i64 noundef 2) #22
  br label %_ZN4llvm11raw_ostreamlsEPKc.exit10

48:                                               ; preds = %_ZN4llvm11raw_ostreamlsEPKc.exit6
  store i16 8250, ptr %41, align 1
  %49 = load ptr, ptr %40, align 8
  %50 = getelementptr inbounds nuw i8, ptr %49, i64 2
  store ptr %50, ptr %40, align 8
  br label %_ZN4llvm11raw_ostreamlsEPKc.exit10

_ZN4llvm11raw_ostreamlsEPKc.exit10:               ; preds = %48, %46, %_ZN4llvm11raw_ostreamlsEPKc.exit
  %51 = load ptr, ptr %0, align 8
  %52 = getelementptr inbounds nuw i8, ptr %1, i64 16
  %53 = load i32, ptr %52, align 4
  %54 = tail call noundef ptr @_ZN5clang29getOpenMPSimpleClauseTypeNameEN4llvm3omp6ClauseEj(i32 noundef 74, i32 noundef %53) #22
  %.not.i.i11 = icmp eq ptr %54, null
  br i1 %.not.i.i11, label %_ZN4llvm11raw_ostreamlsEPKc.exit15, label %_ZN4llvm9StringRefC2EPKc.exit.i12

_ZN4llvm9StringRefC2EPKc.exit.i12:                ; preds = %_ZN4llvm11raw_ostreamlsEPKc.exit10
  %55 = tail call noundef i64 @strlen(ptr noundef nonnull dereferenceable(1) %54) #22
  %56 = getelementptr inbounds nuw i8, ptr %51, i64 24
  %57 = load ptr, ptr %56, align 8
  %58 = getelementptr inbounds nuw i8, ptr %51, i64 32
  %59 = load ptr, ptr %58, align 8
  %60 = ptrtoint ptr %57 to i64
  %61 = ptrtoint ptr %59 to i64
  %62 = sub i64 %60, %61
  %63 = icmp ugt i64 %55, %62
  br i1 %63, label %64, label %66

64:                                               ; preds = %_ZN4llvm9StringRefC2EPKc.exit.i12
  %65 = tail call noundef nonnull align 8 dereferenceable(48) ptr @_ZN4llvm11raw_ostream5writeEPKcm(ptr noundef nonnull align 8 dereferenceable(48) %51, ptr noundef nonnull %54, i64 noundef %55) #22
  br label %_ZN4llvm11raw_ostreamlsEPKc.exit15

66:                                               ; preds = %_ZN4llvm9StringRefC2EPKc.exit.i12
  %.not.i2.i13 = icmp eq i64 %55, 0
  br i1 %.not.i2.i13, label %_ZN4llvm11raw_ostreamlsEPKc.exit15, label %67

67:                                               ; preds = %66
  tail call void @llvm.memcpy.p0.p0.i64(ptr align 1 %59, ptr nonnull align 1 %54, i64 %55, i1 false)
  %68 = load ptr, ptr %58, align 8
  %69 = getelementptr inbounds i8, ptr %68, i64 %55
  store ptr %69, ptr %58, align 8
  br label %_ZN4llvm11raw_ostreamlsEPKc.exit15

_ZN4llvm11raw_ostreamlsEPKc.exit15:               ; preds = %_ZN4llvm11raw_ostreamlsEPKc.exit10, %64, %66, %67
  %.0.i.i14 = phi ptr [ %65, %64 ], [ %51, %67 ], [ %51, %66 ], [ %51, %_ZN4llvm11raw_ostreamlsEPKc.exit10 ]
  %70 = getelementptr inbounds nuw i8, ptr %.0.i.i14, i64 24
  %71 = load ptr, ptr %70, align 8
  %72 = getelementptr inbounds nuw i8, ptr %.0.i.i14, i64 32
  %73 = load ptr, ptr %72, align 8
  %74 = icmp eq ptr %71, %73
  br i1 %74, label %75, label %77

75:                                               ; preds = %_ZN4llvm11raw_ostreamlsEPKc.exit15
  %76 = tail call noundef nonnull align 8 dereferenceable(48) ptr @_ZN4llvm11raw_ostream5writeEPKcm(ptr noundef nonnull align 8 dereferenceable(48) %.0.i.i14, ptr noundef nonnull @.str.3, i64 noundef 1) #22
  br label %_ZN4llvm11raw_ostreamlsEPKc.exit19

77:                                               ; preds = %_ZN4llvm11raw_ostreamlsEPKc.exit15
  store i8 41, ptr %73, align 1
  %78 = load ptr, ptr %72, align 8
  %79 = getelementptr inbounds nuw i8, ptr %78, i64 1
  store ptr %79, ptr %72, align 8
  br label %_ZN4llvm11raw_ostreamlsEPKc.exit19

_ZN4llvm11raw_ostreamlsEPKc.exit19:               ; preds = %75, %77
  ret void
}